---
triple:          'arm64-apple-darwin'
binary-path:     invertsubtree
relocations:
  - { offsetInCU: 0x51E2, offset: 0x51E2, size: 0x8, addend: 0x0, symName: __ZNSt3__124__put_character_sequenceB7v160006IcNS_11char_traitsIcEEEERNS_13basic_ostreamIT_T0_EES7_PKS4_m, symObjAddr: 0x5CB4, symBinAddr: 0x1000069DC, symSize: 0x294 }
  - { offsetInCU: 0x6B20, offset: 0x6B20, size: 0x8, addend: 0x0, symName: __ZNSt3__1lsB7v160006INS_11char_traitsIcEEEERNS_13basic_ostreamIcT_EES6_PKc, symObjAddr: 0x148, symBinAddr: 0x100000E70, symSize: 0x88 }
  - { offsetInCU: 0x6B66, offset: 0x6B66, size: 0x8, addend: 0x0, symName: __ZNSt3__14endlB7v160006IcNS_11char_traitsIcEEEERNS_13basic_ostreamIT_T0_EES7_, symObjAddr: 0x23C, symBinAddr: 0x100000F64, symSize: 0xA8 }
  - { offsetInCU: 0x6BA6, offset: 0x6BA6, size: 0x8, addend: 0x0, symName: __ZNSt3__15asyncB7v160006IM8SolutionFP8TreeNodeS3_EJPS1_RS3_EEENS_6futureINS_11__invoke_ofINS_5decayIT_E4typeEJDpNSA_IT0_E4typeEEE4typeEEEOSB_DpOSE_, symObjAddr: 0x984, symBinAddr: 0x1000016AC, symSize: 0x88 }
  - { offsetInCU: 0x6C0B, offset: 0x6C0B, size: 0x8, addend: 0x0, symName: __ZNSt3__15asyncB7v160006IM8SolutionFP8TreeNodeS3_EJPS1_RS3_EEENS_6futureINS_11__invoke_ofINS_5decayIT_E4typeEJDpNSA_IT0_E4typeEEE4typeEEENS_6launchEOSB_DpOSE_, symObjAddr: 0xB10, symBinAddr: 0x100001838, symSize: 0x2C8 }
  - { offsetInCU: 0x6C7F, offset: 0x6C7F, size: 0x8, addend: 0x0, symName: __ZNSt3__121__does_policy_containB7v160006ENS_6launchES0_, symObjAddr: 0xDD8, symBinAddr: 0x100001B00, symSize: 0x28 }
  - { offsetInCU: 0x6CBC, offset: 0x6CBC, size: 0x8, addend: 0x0, symName: __ZNSt3__124__make_async_assoc_stateB7v160006IP8TreeNodeNS_12__async_funcIM8SolutionFS2_S2_EJPS4_S2_EEEEENS_6futureIT_EEOT0_, symObjAddr: 0xE00, symBinAddr: 0x100001B28, symSize: 0x17C }
  - { offsetInCU: 0x6D0B, offset: 0x6D0B, size: 0x8, addend: 0x0, symName: __ZNSt3__127__make_deferred_assoc_stateB7v160006IP8TreeNodeNS_12__async_funcIM8SolutionFS2_S2_EJPS4_S2_EEEEENS_6futureIT_EEOT0_, symObjAddr: 0x101C, symBinAddr: 0x100001D44, symSize: 0xFC }
  - { offsetInCU: 0x7327, offset: 0x7327, size: 0x8, addend: 0x0, symName: __ZNSt3__120__throw_future_errorB7v160006ENS_11future_errcE, symObjAddr: 0x2024, symBinAddr: 0x100002D4C, symSize: 0xCC }
  - { offsetInCU: 0x7351, offset: 0x7351, size: 0x8, addend: 0x0, symName: __ZNSt3__115make_error_codeB7v160006ENS_11future_errcE, symObjAddr: 0x2374, symBinAddr: 0x10000309C, symSize: 0x78 }
  - { offsetInCU: 0x7397, offset: 0x7397, size: 0x8, addend: 0x0, symName: __ZNSt3__18__invokeB7v160006IM8SolutionFP8TreeNodeS3_EPS1_JS3_EvEEDTcldsdeclsr3stdE7declvalIT0_EEclsr3stdE7declvalIT_EEspclsr3stdE7declvalIT1_EEEEOS8_OS7_DpOS9_, symObjAddr: 0x25F8, symBinAddr: 0x100003320, symSize: 0x110 }
  - { offsetInCU: 0x7401, offset: 0x7401, size: 0x8, addend: 0x0, symName: __ZNSt3__13getB7v160006ILm0EJM8SolutionFP8TreeNodeS3_EPS1_S3_EEERNS_13tuple_elementIXT_ENS_5tupleIJDpT0_EEEE4typeERSB_, symObjAddr: 0x2708, symBinAddr: 0x100003430, symSize: 0x48 }
  - { offsetInCU: 0x744E, offset: 0x744E, size: 0x8, addend: 0x0, symName: __ZNSt3__13getB7v160006ILm1EJM8SolutionFP8TreeNodeS3_EPS1_S3_EEERNS_13tuple_elementIXT_ENS_5tupleIJDpT0_EEEE4typeERSB_, symObjAddr: 0x2750, symBinAddr: 0x100003478, symSize: 0x4C }
  - { offsetInCU: 0x749B, offset: 0x749B, size: 0x8, addend: 0x0, symName: __ZNSt3__13getB7v160006ILm2EJM8SolutionFP8TreeNodeS3_EPS1_S3_EEERNS_13tuple_elementIXT_ENS_5tupleIJDpT0_EEEE4typeERSB_, symObjAddr: 0x279C, symBinAddr: 0x1000034C4, symSize: 0x4C }
  - { offsetInCU: 0x78E5, offset: 0x78E5, size: 0x8, addend: 0x0, symName: __ZNSt3__122__libcpp_thread_createB7v160006EPP17_opaque_pthread_tPFPvS3_ES3_, symObjAddr: 0x2D40, symBinAddr: 0x100003A68, symSize: 0x80 }
  - { offsetInCU: 0x7931, offset: 0x7931, size: 0x8, addend: 0x0, symName: __ZNSt3__114__thread_proxyB7v160006INS_5tupleIJNS_10unique_ptrINS_15__thread_structENS_14default_deleteIS3_EEEEMNS_19__async_assoc_stateIP8TreeNodeNS_12__async_funcIM8SolutionFS9_S9_EJPSB_S9_EEEEEFvvEPSG_EEEEEPvSL_, symObjAddr: 0x2DC0, symBinAddr: 0x100003AE8, symSize: 0xB8 }
  - { offsetInCU: 0x7A97, offset: 0x7A97, size: 0x8, addend: 0x0, symName: __ZNSt3__13getB7v160006ILm0EJNS_10unique_ptrINS_15__thread_structENS_14default_deleteIS2_EEEEMNS_19__async_assoc_stateIP8TreeNodeNS_12__async_funcIM8SolutionFS8_S8_EJPSA_S8_EEEEEFvvEPSF_EEERNS_13tuple_elementIXT_ENS_5tupleIJDpT0_EEEE4typeERSN_, symObjAddr: 0x3AE4, symBinAddr: 0x10000480C, symSize: 0x48 }
  - { offsetInCU: 0x7AE4, offset: 0x7AE4, size: 0x8, addend: 0x0, symName: __ZNSt3__116__thread_executeB7v160006INS_10unique_ptrINS_15__thread_structENS_14default_deleteIS2_EEEEMNS_19__async_assoc_stateIP8TreeNodeNS_12__async_funcIM8SolutionFS8_S8_EJPSA_S8_EEEEEFvvEJPSF_EJLm2EEEEvRNS_5tupleIJT_T0_DpT1_EEENS_15__tuple_indicesIJXspT2_EEEE, symObjAddr: 0x3B2C, symBinAddr: 0x100004854, symSize: 0x6C }
  - { offsetInCU: 0x7B42, offset: 0x7B42, size: 0x8, addend: 0x0, symName: __ZNSt3__116__libcpp_tls_setB7v160006EmPv, symObjAddr: 0x3B98, symBinAddr: 0x1000048C0, symSize: 0x6C }
  - { offsetInCU: 0x7B7F, offset: 0x7B7F, size: 0x8, addend: 0x0, symName: __ZNSt3__18__invokeB7v160006IMNS_19__async_assoc_stateIP8TreeNodeNS_12__async_funcIM8SolutionFS3_S3_EJPS5_S3_EEEEEFvvEPSA_JEvEEDTcldsdeclsr3stdE7declvalIT0_EEclsr3stdE7declvalIT_EEspclsr3stdE7declvalIT1_EEEEOSF_OSE_DpOSG_, symObjAddr: 0x3C18, symBinAddr: 0x100004940, symSize: 0xE0 }
  - { offsetInCU: 0x7BD0, offset: 0x7BD0, size: 0x8, addend: 0x0, symName: __ZNSt3__13getB7v160006ILm1EJNS_10unique_ptrINS_15__thread_structENS_14default_deleteIS2_EEEEMNS_19__async_assoc_stateIP8TreeNodeNS_12__async_funcIM8SolutionFS8_S8_EJPSA_S8_EEEEEFvvEPSF_EEERNS_13tuple_elementIXT_ENS_5tupleIJDpT0_EEEE4typeERSN_, symObjAddr: 0x3CF8, symBinAddr: 0x100004A20, symSize: 0x4C }
  - { offsetInCU: 0x7C1D, offset: 0x7C1D, size: 0x8, addend: 0x0, symName: __ZNSt3__13getB7v160006ILm2EJNS_10unique_ptrINS_15__thread_structENS_14default_deleteIS2_EEEEMNS_19__async_assoc_stateIP8TreeNodeNS_12__async_funcIM8SolutionFS8_S8_EJPSA_S8_EEEEEFvvEPSF_EEERNS_13tuple_elementIXT_ENS_5tupleIJDpT0_EEEE4typeERSN_, symObjAddr: 0x3D44, symBinAddr: 0x100004A6C, symSize: 0x4C }
  - { offsetInCU: 0x7CFA, offset: 0x7CFA, size: 0x8, addend: 0x0, symName: __ZNSt3__134__libcpp_atomic_refcount_incrementB7v160006IlEET_RS1_, symObjAddr: 0x4630, symBinAddr: 0x100005358, symSize: 0x6C }
  - { offsetInCU: 0x7D2F, offset: 0x7D2F, size: 0x8, addend: 0x0, symName: __ZNSt3__134__libcpp_atomic_refcount_decrementB7v160006IlEET_RS1_, symObjAddr: 0x49A0, symBinAddr: 0x1000056C8, symSize: 0x6C }
  - { offsetInCU: 0x844B, offset: 0x844B, size: 0x8, addend: 0x0, symName: __ZNSt3__116__pad_and_outputB7v160006IcNS_11char_traitsIcEEEENS_19ostreambuf_iteratorIT_T0_EES6_PKS4_S8_S8_RNS_8ios_baseES4_, symObjAddr: 0x5FF0, symBinAddr: 0x100006D18, symSize: 0x300 }
  - { offsetInCU: 0x851D, offset: 0x851D, size: 0x8, addend: 0x0, symName: __ZNSt3__119__debug_db_insert_cB7v160006INS_12basic_stringIcNS_11char_traitsIcEENS_9allocatorIcEEEEEEvPT_, symObjAddr: 0x6898, symBinAddr: 0x1000075C0, symSize: 0x10 }
  - { offsetInCU: 0x854E, offset: 0x854E, size: 0x8, addend: 0x0, symName: __ZNSt3__112__to_addressB7v160006IKcEEPT_S3_, symObjAddr: 0x69C8, symBinAddr: 0x1000076F0, symSize: 0x14 }
  - { offsetInCU: 0x85B6, offset: 0x85B6, size: 0x8, addend: 0x0, symName: __ZNSt3__19use_facetB7v160006INS_5ctypeIcEEEERKT_RKNS_6localeE, symObjAddr: 0x6E08, symBinAddr: 0x100007B30, symSize: 0x64 }
  - { offsetInCU: 0x8A85, offset: 0x8A85, size: 0x8, addend: 0x0, symName: __ZNSt3__118__constexpr_strlenB7v160006EPKc, symObjAddr: 0x6F74, symBinAddr: 0x100007C9C, symSize: 0x48 }
  - { offsetInCU: 0x8BDF, offset: 0x8BDF, size: 0x8, addend: 0x0, symName: __ZStneB7v160006RKSt13exception_ptrS1_, symObjAddr: 0x21D8, symBinAddr: 0x100002F00, symSize: 0x60 }
  - { offsetInCU: 0x8C19, offset: 0x8C19, size: 0x8, addend: 0x0, symName: __ZSteqB7v160006RKSt13exception_ptrS1_, symObjAddr: 0x2290, symBinAddr: 0x100002FB8, symSize: 0x88 }
  - { offsetInCU: 0xB744, offset: 0xB744, size: 0x8, addend: 0x0, symName: __Z9printTreeP8TreeNodei, symObjAddr: 0x0, symBinAddr: 0x100000D28, symSize: 0x148 }
  - { offsetInCU: 0xB799, offset: 0xB799, size: 0x8, addend: 0x0, symName: __ZNSt3__113basic_ostreamIcNS_11char_traitsIcEEElsB7v160006EPFRS3_S4_E, symObjAddr: 0x1D0, symBinAddr: 0x100000EF8, symSize: 0x6C }
  - { offsetInCU: 0xB7CD, offset: 0xB7CD, size: 0x8, addend: 0x0, symName: _main, symObjAddr: 0x2E4, symBinAddr: 0x10000100C, symSize: 0x35C }
  - { offsetInCU: 0xB815, offset: 0xB815, size: 0x8, addend: 0x0, symName: __ZN8TreeNodeC1Ei, symObjAddr: 0x640, symBinAddr: 0x100001368, symSize: 0x58 }
  - { offsetInCU: 0xB84D, offset: 0xB84D, size: 0x8, addend: 0x0, symName: __ZN8Solution10invertTreeEP8TreeNode, symObjAddr: 0x698, symBinAddr: 0x1000013C0, symSize: 0x6C }
  - { offsetInCU: 0xB881, offset: 0xB881, size: 0x8, addend: 0x0, symName: __ZN8TreeNodeC2Ei, symObjAddr: 0x704, symBinAddr: 0x10000142C, symSize: 0x88 }
  - { offsetInCU: 0xB8B9, offset: 0xB8B9, size: 0x8, addend: 0x0, symName: __ZN8Solution14invertSubtreesEP8TreeNode, symObjAddr: 0x78C, symBinAddr: 0x1000014B4, symSize: 0x1F8 }
  - { offsetInCU: 0xB90C, offset: 0xB90C, size: 0x8, addend: 0x0, symName: __ZNSt3__16futureIP8TreeNodeE3getEv, symObjAddr: 0xA0C, symBinAddr: 0x100001734, symSize: 0xBC }
  - { offsetInCU: 0xB952, offset: 0xB952, size: 0x8, addend: 0x0, symName: __ZNSt3__16futureIP8TreeNodeED1Ev, symObjAddr: 0xAC8, symBinAddr: 0x1000017F0, symSize: 0x48 }
  - { offsetInCU: 0xB97E, offset: 0xB97E, size: 0x8, addend: 0x0, symName: __ZNSt3__112__async_funcIM8SolutionFP8TreeNodeS3_EJPS1_S3_EEC1B7v160006EOS5_OS6_OS3_, symObjAddr: 0xF7C, symBinAddr: 0x100001CA4, symSize: 0x78 }
  - { offsetInCU: 0xB9D5, offset: 0xB9D5, size: 0x8, addend: 0x0, symName: __ZNSt3__16futureIP8TreeNodeEC1B7v160006Ev, symObjAddr: 0x1118, symBinAddr: 0x100001E40, symSize: 0x48 }
  - { offsetInCU: 0xB9FF, offset: 0xB9FF, size: 0x8, addend: 0x0, symName: __ZNSt3__119__async_assoc_stateIP8TreeNodeNS_12__async_funcIM8SolutionFS2_S2_EJPS4_S2_EEEEC1EOS8_, symObjAddr: 0x1160, symBinAddr: 0x100001E88, symSize: 0x6C }
  - { offsetInCU: 0xBAC1, offset: 0xBAC1, size: 0x8, addend: 0x0, symName: __ZNSt3__110unique_ptrINS_19__async_assoc_stateIP8TreeNodeNS_12__async_funcIM8SolutionFS3_S3_EJPS5_S3_EEEEENS_22__release_shared_countEEC1B7v160006ILb1EvEEPSA_, symObjAddr: 0x11CC, symBinAddr: 0x100001EF4, symSize: 0x58 }
  - { offsetInCU: 0xBB04, offset: 0xBB04, size: 0x8, addend: 0x0, symName: __ZNKSt3__110unique_ptrINS_19__async_assoc_stateIP8TreeNodeNS_12__async_funcIM8SolutionFS3_S3_EJPS5_S3_EEEEENS_22__release_shared_countEE3getB7v160006Ev, symObjAddr: 0x1224, symBinAddr: 0x100001F4C, symSize: 0x58 }
  - { offsetInCU: 0xBBEF, offset: 0xBBEF, size: 0x8, addend: 0x0, symName: __ZNSt3__16threadC1IMNS_19__async_assoc_stateIP8TreeNodeNS_12__async_funcIM8SolutionFS4_S4_EJPS6_S4_EEEEEFvvEJPSB_EvEEOT_DpOT0_, symObjAddr: 0x127C, symBinAddr: 0x100001FA4, symSize: 0x7C }
  - { offsetInCU: 0xBC4C, offset: 0xBC4C, size: 0x8, addend: 0x0, symName: __ZNSt3__16futureIP8TreeNodeEC1EPNS_13__assoc_stateIS2_EE, symObjAddr: 0x12F8, symBinAddr: 0x100002020, symSize: 0x6C }
  - { offsetInCU: 0xBC87, offset: 0xBC87, size: 0x8, addend: 0x0, symName: __ZNSt3__110unique_ptrINS_19__async_assoc_stateIP8TreeNodeNS_12__async_funcIM8SolutionFS3_S3_EJPS5_S3_EEEEENS_22__release_shared_countEED1B7v160006Ev, symObjAddr: 0x1364, symBinAddr: 0x10000208C, symSize: 0x48 }
  - { offsetInCU: 0xBCB1, offset: 0xBCB1, size: 0x8, addend: 0x0, symName: __ZNSt3__119__async_assoc_stateIP8TreeNodeNS_12__async_funcIM8SolutionFS2_S2_EJPS4_S2_EEEEC2EOS8_, symObjAddr: 0x13AC, symBinAddr: 0x1000020D4, symSize: 0xE0 }
  - { offsetInCU: 0xBCEC, offset: 0xBCEC, size: 0x8, addend: 0x0, symName: __ZNSt3__113__assoc_stateIP8TreeNodeEC2Ev, symObjAddr: 0x148C, symBinAddr: 0x1000021B4, symSize: 0x70 }
  - { offsetInCU: 0xBD19, offset: 0xBD19, size: 0x8, addend: 0x0, symName: __ZNSt3__112__async_funcIM8SolutionFP8TreeNodeS3_EJPS1_S3_EEC1B7v160006EOS7_, symObjAddr: 0x14FC, symBinAddr: 0x100002224, symSize: 0x58 }
  - { offsetInCU: 0xBD52, offset: 0xBD52, size: 0x8, addend: 0x0, symName: __ZNSt3__113__assoc_stateIP8TreeNodeED2Ev, symObjAddr: 0x1554, symBinAddr: 0x10000227C, symSize: 0x48 }
  - { offsetInCU: 0xBD7F, offset: 0xBD7F, size: 0x8, addend: 0x0, symName: __ZNSt3__119__async_assoc_stateIP8TreeNodeNS_12__async_funcIM8SolutionFS2_S2_EJPS4_S2_EEEED1Ev, symObjAddr: 0x159C, symBinAddr: 0x1000022C4, symSize: 0x48 }
  - { offsetInCU: 0xBDAC, offset: 0xBDAC, size: 0x8, addend: 0x0, symName: __ZNSt3__119__async_assoc_stateIP8TreeNodeNS_12__async_funcIM8SolutionFS2_S2_EJPS4_S2_EEEED0Ev, symObjAddr: 0x15E4, symBinAddr: 0x10000230C, symSize: 0x4C }
  - { offsetInCU: 0xBDD9, offset: 0xBDD9, size: 0x8, addend: 0x0, symName: __ZNSt3__119__async_assoc_stateIP8TreeNodeNS_12__async_funcIM8SolutionFS2_S2_EJPS4_S2_EEEE16__on_zero_sharedEv, symObjAddr: 0x1630, symBinAddr: 0x100002358, symSize: 0x54 }
  - { offsetInCU: 0xBE01, offset: 0xBE01, size: 0x8, addend: 0x0, symName: __ZNSt3__119__async_assoc_stateIP8TreeNodeNS_12__async_funcIM8SolutionFS2_S2_EJPS4_S2_EEEE9__executeEv, symObjAddr: 0x1684, symBinAddr: 0x1000023AC, symSize: 0x118 }
  - { offsetInCU: 0xBE29, offset: 0xBE29, size: 0x8, addend: 0x0, symName: __ZNSt3__117__assoc_sub_stateC2B7v160006Ev, symObjAddr: 0x179C, symBinAddr: 0x1000024C4, symSize: 0xA8 }
  - { offsetInCU: 0xBE53, offset: 0xBE53, size: 0x8, addend: 0x0, symName: __ZNSt3__113__assoc_stateIP8TreeNodeED1Ev, symObjAddr: 0x1844, symBinAddr: 0x10000256C, symSize: 0x48 }
  - { offsetInCU: 0xBE80, offset: 0xBE80, size: 0x8, addend: 0x0, symName: __ZNSt3__113__assoc_stateIP8TreeNodeED0Ev, symObjAddr: 0x188C, symBinAddr: 0x1000025B4, symSize: 0x4C }
  - { offsetInCU: 0xBEAD, offset: 0xBEAD, size: 0x8, addend: 0x0, symName: __ZNSt3__113__assoc_stateIP8TreeNodeE16__on_zero_sharedEv, symObjAddr: 0x18D8, symBinAddr: 0x100002600, symSize: 0x94 }
  - { offsetInCU: 0xBED5, offset: 0xBED5, size: 0x8, addend: 0x0, symName: __ZNSt3__114__shared_countC2B7v160006El, symObjAddr: 0x196C, symBinAddr: 0x100002694, symSize: 0x90 }
  - { offsetInCU: 0xBF0D, offset: 0xBF0D, size: 0x8, addend: 0x0, symName: __ZNSt13exception_ptrC1B7v160006Ev, symObjAddr: 0x19FC, symBinAddr: 0x100002724, symSize: 0x48 }
  - { offsetInCU: 0xBF37, offset: 0xBF37, size: 0x8, addend: 0x0, symName: __ZNSt3__15mutexC1B7v160006Ev, symObjAddr: 0x1A44, symBinAddr: 0x10000276C, symSize: 0x48 }
  - { offsetInCU: 0xBF61, offset: 0xBF61, size: 0x8, addend: 0x0, symName: __ZNSt3__118condition_variableC1B7v160006Ev, symObjAddr: 0x1A8C, symBinAddr: 0x1000027B4, symSize: 0x48 }
  - { offsetInCU: 0xBF8B, offset: 0xBF8B, size: 0x8, addend: 0x0, symName: __ZNSt13exception_ptrC2B7v160006Ev, symObjAddr: 0x1AD4, symBinAddr: 0x1000027FC, symSize: 0x50 }
  - { offsetInCU: 0xBFB5, offset: 0xBFB5, size: 0x8, addend: 0x0, symName: __ZNSt3__15mutexC2B7v160006Ev, symObjAddr: 0x1B24, symBinAddr: 0x10000284C, symSize: 0x68 }
  - { offsetInCU: 0xBFDF, offset: 0xBFDF, size: 0x8, addend: 0x0, symName: __ZNSt3__118condition_variableC2B7v160006Ev, symObjAddr: 0x1B8C, symBinAddr: 0x1000028B4, symSize: 0x68 }
  - { offsetInCU: 0xC009, offset: 0xC009, size: 0x8, addend: 0x0, symName: __ZNSt3__112__async_funcIM8SolutionFP8TreeNodeS3_EJPS1_S3_EEC2B7v160006EOS7_, symObjAddr: 0x1BF4, symBinAddr: 0x10000291C, symSize: 0x5C }
  - { offsetInCU: 0xC042, offset: 0xC042, size: 0x8, addend: 0x0, symName: __ZNSt3__117__assoc_sub_stateD2Ev, symObjAddr: 0x1C50, symBinAddr: 0x100002978, symSize: 0x90 }
  - { offsetInCU: 0xC06F, offset: 0xC06F, size: 0x8, addend: 0x0, symName: __ZNSt3__119__async_assoc_stateIP8TreeNodeNS_12__async_funcIM8SolutionFS2_S2_EJPS4_S2_EEEED2Ev, symObjAddr: 0x1CE0, symBinAddr: 0x100002A08, symSize: 0x48 }
  - { offsetInCU: 0xC09C, offset: 0xC09C, size: 0x8, addend: 0x0, symName: __ZNSt3__113__assoc_stateIP8TreeNodeE9set_valueIS2_EEvOT_, symObjAddr: 0x1D28, symBinAddr: 0x100002A50, symSize: 0x140 }
  - { offsetInCU: 0xC0EB, offset: 0xC0EB, size: 0x8, addend: 0x0, symName: __ZNSt3__112__async_funcIM8SolutionFP8TreeNodeS3_EJPS1_S3_EEclEv, symObjAddr: 0x1E68, symBinAddr: 0x100002B90, symSize: 0x5C }
  - { offsetInCU: 0xC111, offset: 0xC111, size: 0x8, addend: 0x0, symName: __ZNSt3__111unique_lockINS_5mutexEEC1B7v160006ERS1_, symObjAddr: 0x1EC4, symBinAddr: 0x100002BEC, symSize: 0x6C }
  - { offsetInCU: 0xC149, offset: 0xC149, size: 0x8, addend: 0x0, symName: __ZNKSt3__117__assoc_sub_state11__has_valueB7v160006Ev, symObjAddr: 0x1F30, symBinAddr: 0x100002C58, symSize: 0xF4 }
  - { offsetInCU: 0xC16F, offset: 0xC16F, size: 0x8, addend: 0x0, symName: __ZNSt3__111unique_lockINS_5mutexEED1B7v160006Ev, symObjAddr: 0x20F0, symBinAddr: 0x100002E18, symSize: 0x48 }
  - { offsetInCU: 0xC199, offset: 0xC199, size: 0x8, addend: 0x0, symName: __ZNSt3__111unique_lockINS_5mutexEEC2B7v160006ERS1_, symObjAddr: 0x2138, symBinAddr: 0x100002E60, symSize: 0xA0 }
  - { offsetInCU: 0xC1D1, offset: 0xC1D1, size: 0x8, addend: 0x0, symName: __ZNSt13exception_ptrC1B7v160006EDn, symObjAddr: 0x2238, symBinAddr: 0x100002F60, symSize: 0x58 }
  - { offsetInCU: 0xC206, offset: 0xC206, size: 0x8, addend: 0x0, symName: __ZNSt13exception_ptrC2B7v160006EDn, symObjAddr: 0x2318, symBinAddr: 0x100003040, symSize: 0x5C }
  - { offsetInCU: 0xC23B, offset: 0xC23B, size: 0x8, addend: 0x0, symName: __ZNSt3__110error_codeC1B7v160006EiRKNS_14error_categoryE, symObjAddr: 0x23EC, symBinAddr: 0x100003114, symSize: 0x68 }
  - { offsetInCU: 0xC283, offset: 0xC283, size: 0x8, addend: 0x0, symName: __ZNSt3__110error_codeC2B7v160006EiRKNS_14error_categoryE, symObjAddr: 0x2454, symBinAddr: 0x10000317C, symSize: 0x90 }
  - { offsetInCU: 0xC2CB, offset: 0xC2CB, size: 0x8, addend: 0x0, symName: __ZNSt3__111unique_lockINS_5mutexEED2B7v160006Ev, symObjAddr: 0x24E4, symBinAddr: 0x10000320C, symSize: 0x84 }
  - { offsetInCU: 0xC2F5, offset: 0xC2F5, size: 0x8, addend: 0x0, symName: __ZNSt3__112__async_funcIM8SolutionFP8TreeNodeS3_EJPS1_S3_EE9__executeIJLm1ELm2EEEES3_NS_15__tuple_indicesIJXspT_EEEE, symObjAddr: 0x2568, symBinAddr: 0x100003290, symSize: 0x90 }
  - { offsetInCU: 0xC338, offset: 0xC338, size: 0x8, addend: 0x0, symName: __ZNSt3__112__tuple_leafILm0EM8SolutionFP8TreeNodeS3_ELb0EE3getB7v160006Ev, symObjAddr: 0x27E8, symBinAddr: 0x100003510, symSize: 0x14 }
  - { offsetInCU: 0xC35E, offset: 0xC35E, size: 0x8, addend: 0x0, symName: __ZNSt3__112__tuple_leafILm1EP8SolutionLb0EE3getB7v160006Ev, symObjAddr: 0x27FC, symBinAddr: 0x100003524, symSize: 0x14 }
  - { offsetInCU: 0xC384, offset: 0xC384, size: 0x8, addend: 0x0, symName: __ZNSt3__112__tuple_leafILm2EP8TreeNodeLb0EE3getB7v160006Ev, symObjAddr: 0x2810, symBinAddr: 0x100003538, symSize: 0x14 }
  - { offsetInCU: 0xC3AA, offset: 0xC3AA, size: 0x8, addend: 0x0, symName: __ZNSt3__110unique_ptrINS_19__async_assoc_stateIP8TreeNodeNS_12__async_funcIM8SolutionFS3_S3_EJPS5_S3_EEEEENS_22__release_shared_countEEC2B7v160006ILb1EvEEPSA_, symObjAddr: 0x2824, symBinAddr: 0x10000354C, symSize: 0x70 }
  - { offsetInCU: 0xC3F2, offset: 0xC3F2, size: 0x8, addend: 0x0, symName: __ZNSt3__117__compressed_pairIPNS_19__async_assoc_stateIP8TreeNodeNS_12__async_funcIM8SolutionFS3_S3_EJPS5_S3_EEEEENS_22__release_shared_countEEC1B7v160006IRSB_NS_16__value_init_tagEEEOT_OT0_, symObjAddr: 0x2894, symBinAddr: 0x1000035BC, symSize: 0x7C }
  - { offsetInCU: 0xC44A, offset: 0xC44A, size: 0x8, addend: 0x0, symName: __ZNSt3__117__compressed_pairIPNS_19__async_assoc_stateIP8TreeNodeNS_12__async_funcIM8SolutionFS3_S3_EJPS5_S3_EEEEENS_22__release_shared_countEEC2B7v160006IRSB_NS_16__value_init_tagEEEOT_OT0_, symObjAddr: 0x2910, symBinAddr: 0x100003638, symSize: 0x6C }
  - { offsetInCU: 0xC4A2, offset: 0xC4A2, size: 0x8, addend: 0x0, symName: __ZNSt3__122__compressed_pair_elemIPNS_19__async_assoc_stateIP8TreeNodeNS_12__async_funcIM8SolutionFS3_S3_EJPS5_S3_EEEEELi0ELb0EEC2B7v160006IRSB_vEEOT_, symObjAddr: 0x297C, symBinAddr: 0x1000036A4, symSize: 0x7C }
  - { offsetInCU: 0xC4E4, offset: 0xC4E4, size: 0x8, addend: 0x0, symName: __ZNSt3__122__compressed_pair_elemINS_22__release_shared_countELi1ELb1EEC2B7v160006ENS_16__value_init_tagE, symObjAddr: 0x29F8, symBinAddr: 0x100003720, symSize: 0x14 }
  - { offsetInCU: 0xC519, offset: 0xC519, size: 0x8, addend: 0x0, symName: __ZNKSt3__117__compressed_pairIPNS_19__async_assoc_stateIP8TreeNodeNS_12__async_funcIM8SolutionFS3_S3_EJPS5_S3_EEEEENS_22__release_shared_countEE5firstB7v160006Ev, symObjAddr: 0x2A0C, symBinAddr: 0x100003734, symSize: 0x48 }
  - { offsetInCU: 0xC53F, offset: 0xC53F, size: 0x8, addend: 0x0, symName: __ZNKSt3__122__compressed_pair_elemIPNS_19__async_assoc_stateIP8TreeNodeNS_12__async_funcIM8SolutionFS3_S3_EJPS5_S3_EEEEELi0ELb0EE5__getB7v160006Ev, symObjAddr: 0x2A54, symBinAddr: 0x10000377C, symSize: 0x14 }
  - { offsetInCU: 0xC565, offset: 0xC565, size: 0x8, addend: 0x0, symName: __ZNSt3__16threadC2IMNS_19__async_assoc_stateIP8TreeNodeNS_12__async_funcIM8SolutionFS4_S4_EJPS6_S4_EEEEEFvvEJPSB_EvEEOT_DpOT0_, symObjAddr: 0x2A68, symBinAddr: 0x100003790, symSize: 0x1B0 }
  - { offsetInCU: 0xC5F5, offset: 0xC5F5, size: 0x8, addend: 0x0, symName: __ZNSt3__110unique_ptrINS_15__thread_structENS_14default_deleteIS1_EEEC1B7v160006ILb1EvEEPS1_, symObjAddr: 0x2C18, symBinAddr: 0x100003940, symSize: 0x58 }
  - { offsetInCU: 0xC638, offset: 0xC638, size: 0x8, addend: 0x0, symName: __ZNSt3__15tupleIJNS_10unique_ptrINS_15__thread_structENS_14default_deleteIS2_EEEEMNS_19__async_assoc_stateIP8TreeNodeNS_12__async_funcIM8SolutionFS8_S8_EJPSA_S8_EEEEEFvvEPSF_EEC1B7v160006IJS5_SH_SI_ELi0EEEDpOT_, symObjAddr: 0x2C70, symBinAddr: 0x100003998, symSize: 0x78 }
  - { offsetInCU: 0xC73B, offset: 0xC73B, size: 0x8, addend: 0x0, symName: __ZNSt3__110unique_ptrINS_5tupleIJNS0_INS_15__thread_structENS_14default_deleteIS2_EEEEMNS_19__async_assoc_stateIP8TreeNodeNS_12__async_funcIM8SolutionFS8_S8_EJPSA_S8_EEEEEFvvEPSF_EEENS3_ISJ_EEEC1B7v160006ILb1EvEEPSJ_, symObjAddr: 0x2CE8, symBinAddr: 0x100003A10, symSize: 0x58 }
  - { offsetInCU: 0xC77E, offset: 0xC77E, size: 0x8, addend: 0x0, symName: __ZNKSt3__110unique_ptrINS_5tupleIJNS0_INS_15__thread_structENS_14default_deleteIS2_EEEEMNS_19__async_assoc_stateIP8TreeNodeNS_12__async_funcIM8SolutionFS8_S8_EJPSA_S8_EEEEEFvvEPSF_EEENS3_ISJ_EEE3getB7v160006Ev, symObjAddr: 0x2E78, symBinAddr: 0x100003BA0, symSize: 0x58 }
  - { offsetInCU: 0xC7A4, offset: 0xC7A4, size: 0x8, addend: 0x0, symName: __ZNSt3__110unique_ptrINS_5tupleIJNS0_INS_15__thread_structENS_14default_deleteIS2_EEEEMNS_19__async_assoc_stateIP8TreeNodeNS_12__async_funcIM8SolutionFS8_S8_EJPSA_S8_EEEEEFvvEPSF_EEENS3_ISJ_EEE7releaseB7v160006Ev, symObjAddr: 0x2ED0, symBinAddr: 0x100003BF8, symSize: 0x7C }
  - { offsetInCU: 0xC7D9, offset: 0xC7D9, size: 0x8, addend: 0x0, symName: __ZNSt3__110unique_ptrINS_5tupleIJNS0_INS_15__thread_structENS_14default_deleteIS2_EEEEMNS_19__async_assoc_stateIP8TreeNodeNS_12__async_funcIM8SolutionFS8_S8_EJPSA_S8_EEEEEFvvEPSF_EEENS3_ISJ_EEED1B7v160006Ev, symObjAddr: 0x2F4C, symBinAddr: 0x100003C74, symSize: 0x48 }
  - { offsetInCU: 0xC803, offset: 0xC803, size: 0x8, addend: 0x0, symName: __ZNSt3__110unique_ptrINS_15__thread_structENS_14default_deleteIS1_EEED1B7v160006Ev, symObjAddr: 0x2F94, symBinAddr: 0x100003CBC, symSize: 0x48 }
  - { offsetInCU: 0xC82D, offset: 0xC82D, size: 0x8, addend: 0x0, symName: __ZNSt3__110unique_ptrINS_15__thread_structENS_14default_deleteIS1_EEEC2B7v160006ILb1EvEEPS1_, symObjAddr: 0x2FDC, symBinAddr: 0x100003D04, symSize: 0x70 }
  - { offsetInCU: 0xC870, offset: 0xC870, size: 0x8, addend: 0x0, symName: __ZNSt3__117__compressed_pairIPNS_15__thread_structENS_14default_deleteIS1_EEEC1B7v160006IRS2_NS_16__value_init_tagEEEOT_OT0_, symObjAddr: 0x304C, symBinAddr: 0x100003D74, symSize: 0x7C }
  - { offsetInCU: 0xC8C8, offset: 0xC8C8, size: 0x8, addend: 0x0, symName: __ZNSt3__117__compressed_pairIPNS_15__thread_structENS_14default_deleteIS1_EEEC2B7v160006IRS2_NS_16__value_init_tagEEEOT_OT0_, symObjAddr: 0x30C8, symBinAddr: 0x100003DF0, symSize: 0x6C }
  - { offsetInCU: 0xC920, offset: 0xC920, size: 0x8, addend: 0x0, symName: __ZNSt3__122__compressed_pair_elemIPNS_15__thread_structELi0ELb0EEC2B7v160006IRS2_vEEOT_, symObjAddr: 0x3134, symBinAddr: 0x100003E5C, symSize: 0x7C }
  - { offsetInCU: 0xC962, offset: 0xC962, size: 0x8, addend: 0x0, symName: __ZNSt3__122__compressed_pair_elemINS_14default_deleteINS_15__thread_structEEELi1ELb1EEC2B7v160006ENS_16__value_init_tagE, symObjAddr: 0x31B0, symBinAddr: 0x100003ED8, symSize: 0x14 }
  - { offsetInCU: 0xC997, offset: 0xC997, size: 0x8, addend: 0x0, symName: __ZNSt3__15tupleIJNS_10unique_ptrINS_15__thread_structENS_14default_deleteIS2_EEEEMNS_19__async_assoc_stateIP8TreeNodeNS_12__async_funcIM8SolutionFS8_S8_EJPSA_S8_EEEEEFvvEPSF_EEC2B7v160006IJS5_SH_SI_ELi0EEEDpOT_, symObjAddr: 0x31C4, symBinAddr: 0x100003EEC, symSize: 0x78 }
  - { offsetInCU: 0xCA09, offset: 0xCA09, size: 0x8, addend: 0x0, symName: __ZNSt3__112__tuple_implINS_15__tuple_indicesIJLm0ELm1ELm2EEEEJNS_10unique_ptrINS_15__thread_structENS_14default_deleteIS4_EEEEMNS_19__async_assoc_stateIP8TreeNodeNS_12__async_funcIM8SolutionFSA_SA_EJPSC_SA_EEEEEFvvEPSH_EEC1B7v160006IJLm0ELm1ELm2EEJS7_SJ_SK_EJEJEJS7_SJ_SK_EEENS1_IJXspT_EEEENS_13__tuple_typesIJDpT0_EEENS1_IJXspT1_EEEENSO_IJDpT2_EEEDpOT3_, symObjAddr: 0x323C, symBinAddr: 0x100003F64, symSize: 0x78 }
  - { offsetInCU: 0xCAD8, offset: 0xCAD8, size: 0x8, addend: 0x0, symName: __ZNSt3__112__tuple_implINS_15__tuple_indicesIJLm0ELm1ELm2EEEEJNS_10unique_ptrINS_15__thread_structENS_14default_deleteIS4_EEEEMNS_19__async_assoc_stateIP8TreeNodeNS_12__async_funcIM8SolutionFSA_SA_EJPSC_SA_EEEEEFvvEPSH_EEC2B7v160006IJLm0ELm1ELm2EEJS7_SJ_SK_EJEJEJS7_SJ_SK_EEENS1_IJXspT_EEEENS_13__tuple_typesIJDpT0_EEENS1_IJXspT1_EEEENSO_IJDpT2_EEEDpOT3_, symObjAddr: 0x32B4, symBinAddr: 0x100003FDC, symSize: 0x90 }
  - { offsetInCU: 0xCBA7, offset: 0xCBA7, size: 0x8, addend: 0x0, symName: __ZNSt3__112__tuple_leafILm0ENS_10unique_ptrINS_15__thread_structENS_14default_deleteIS2_EEEELb0EEC2B7v160006IS5_vEEOT_, symObjAddr: 0x3344, symBinAddr: 0x10000406C, symSize: 0x58 }
  - { offsetInCU: 0xCBEA, offset: 0xCBEA, size: 0x8, addend: 0x0, symName: __ZNSt3__112__tuple_leafILm1EMNS_19__async_assoc_stateIP8TreeNodeNS_12__async_funcIM8SolutionFS3_S3_EJPS5_S3_EEEEEFvvELb0EEC2B7v160006ISC_vEEOT_, symObjAddr: 0x339C, symBinAddr: 0x1000040C4, symSize: 0x8C }
  - { offsetInCU: 0xCC2D, offset: 0xCC2D, size: 0x8, addend: 0x0, symName: __ZNSt3__112__tuple_leafILm2EPNS_19__async_assoc_stateIP8TreeNodeNS_12__async_funcIM8SolutionFS3_S3_EJPS5_S3_EEEEELb0EEC2B7v160006ISB_vEEOT_, symObjAddr: 0x3428, symBinAddr: 0x100004150, symSize: 0x7C }
  - { offsetInCU: 0xCC70, offset: 0xCC70, size: 0x8, addend: 0x0, symName: __ZNSt3__110unique_ptrINS_15__thread_structENS_14default_deleteIS1_EEEC1B7v160006EOS4_, symObjAddr: 0x34A4, symBinAddr: 0x1000041CC, symSize: 0x58 }
  - { offsetInCU: 0xCCA8, offset: 0xCCA8, size: 0x8, addend: 0x0, symName: __ZNSt3__110unique_ptrINS_15__thread_structENS_14default_deleteIS1_EEEC2B7v160006EOS4_, symObjAddr: 0x34FC, symBinAddr: 0x100004224, symSize: 0x90 }
  - { offsetInCU: 0xCCE0, offset: 0xCCE0, size: 0x8, addend: 0x0, symName: __ZNSt3__110unique_ptrINS_15__thread_structENS_14default_deleteIS1_EEE7releaseB7v160006Ev, symObjAddr: 0x358C, symBinAddr: 0x1000042B4, symSize: 0x7C }
  - { offsetInCU: 0xCD15, offset: 0xCD15, size: 0x8, addend: 0x0, symName: __ZNSt3__110unique_ptrINS_15__thread_structENS_14default_deleteIS1_EEE11get_deleterB7v160006Ev, symObjAddr: 0x3608, symBinAddr: 0x100004330, symSize: 0x48 }
  - { offsetInCU: 0xCD45, offset: 0xCD45, size: 0x8, addend: 0x0, symName: __ZNSt3__117__compressed_pairIPNS_15__thread_structENS_14default_deleteIS1_EEEC1B7v160006IS2_S4_EEOT_OT0_, symObjAddr: 0x3650, symBinAddr: 0x100004378, symSize: 0x7C }
  - { offsetInCU: 0xCD9D, offset: 0xCD9D, size: 0x8, addend: 0x0, symName: __ZNSt3__117__compressed_pairIPNS_15__thread_structENS_14default_deleteIS1_EEE5firstB7v160006Ev, symObjAddr: 0x36CC, symBinAddr: 0x1000043F4, symSize: 0x48 }
  - { offsetInCU: 0xCDC3, offset: 0xCDC3, size: 0x8, addend: 0x0, symName: __ZNSt3__122__compressed_pair_elemIPNS_15__thread_structELi0ELb0EE5__getB7v160006Ev, symObjAddr: 0x3714, symBinAddr: 0x10000443C, symSize: 0x14 }
  - { offsetInCU: 0xCDE9, offset: 0xCDE9, size: 0x8, addend: 0x0, symName: __ZNSt3__117__compressed_pairIPNS_15__thread_structENS_14default_deleteIS1_EEE6secondB7v160006Ev, symObjAddr: 0x3728, symBinAddr: 0x100004450, symSize: 0x48 }
  - { offsetInCU: 0xCE0F, offset: 0xCE0F, size: 0x8, addend: 0x0, symName: __ZNSt3__122__compressed_pair_elemINS_14default_deleteINS_15__thread_structEEELi1ELb1EE5__getB7v160006Ev, symObjAddr: 0x3770, symBinAddr: 0x100004498, symSize: 0x14 }
  - { offsetInCU: 0xCE35, offset: 0xCE35, size: 0x8, addend: 0x0, symName: __ZNSt3__117__compressed_pairIPNS_15__thread_structENS_14default_deleteIS1_EEEC2B7v160006IS2_S4_EEOT_OT0_, symObjAddr: 0x3784, symBinAddr: 0x1000044AC, symSize: 0x70 }
  - { offsetInCU: 0xCE8D, offset: 0xCE8D, size: 0x8, addend: 0x0, symName: __ZNSt3__122__compressed_pair_elemIPNS_15__thread_structELi0ELb0EEC2B7v160006IS2_vEEOT_, symObjAddr: 0x37F4, symBinAddr: 0x10000451C, symSize: 0x7C }
  - { offsetInCU: 0xCECF, offset: 0xCECF, size: 0x8, addend: 0x0, symName: __ZNSt3__122__compressed_pair_elemINS_14default_deleteINS_15__thread_structEEELi1ELb1EEC2B7v160006IS3_vEEOT_, symObjAddr: 0x3870, symBinAddr: 0x100004598, symSize: 0x18 }
  - { offsetInCU: 0xCF11, offset: 0xCF11, size: 0x8, addend: 0x0, symName: __ZNSt3__110unique_ptrINS_5tupleIJNS0_INS_15__thread_structENS_14default_deleteIS2_EEEEMNS_19__async_assoc_stateIP8TreeNodeNS_12__async_funcIM8SolutionFS8_S8_EJPSA_S8_EEEEEFvvEPSF_EEENS3_ISJ_EEEC2B7v160006ILb1EvEEPSJ_, symObjAddr: 0x3888, symBinAddr: 0x1000045B0, symSize: 0x70 }
  - { offsetInCU: 0xCF54, offset: 0xCF54, size: 0x8, addend: 0x0, symName: __ZNSt3__117__compressed_pairIPNS_5tupleIJNS_10unique_ptrINS_15__thread_structENS_14default_deleteIS3_EEEEMNS_19__async_assoc_stateIP8TreeNodeNS_12__async_funcIM8SolutionFS9_S9_EJPSB_S9_EEEEEFvvEPSG_EEENS4_ISK_EEEC1B7v160006IRSL_NS_16__value_init_tagEEEOT_OT0_, symObjAddr: 0x38F8, symBinAddr: 0x100004620, symSize: 0x7C }
  - { offsetInCU: 0xCFAC, offset: 0xCFAC, size: 0x8, addend: 0x0, symName: __ZNSt3__117__compressed_pairIPNS_5tupleIJNS_10unique_ptrINS_15__thread_structENS_14default_deleteIS3_EEEEMNS_19__async_assoc_stateIP8TreeNodeNS_12__async_funcIM8SolutionFS9_S9_EJPSB_S9_EEEEEFvvEPSG_EEENS4_ISK_EEEC2B7v160006IRSL_NS_16__value_init_tagEEEOT_OT0_, symObjAddr: 0x3974, symBinAddr: 0x10000469C, symSize: 0x6C }
  - { offsetInCU: 0xD004, offset: 0xD004, size: 0x8, addend: 0x0, symName: __ZNSt3__122__compressed_pair_elemIPNS_5tupleIJNS_10unique_ptrINS_15__thread_structENS_14default_deleteIS3_EEEEMNS_19__async_assoc_stateIP8TreeNodeNS_12__async_funcIM8SolutionFS9_S9_EJPSB_S9_EEEEEFvvEPSG_EEELi0ELb0EEC2B7v160006IRSL_vEEOT_, symObjAddr: 0x39E0, symBinAddr: 0x100004708, symSize: 0x7C }
  - { offsetInCU: 0xD046, offset: 0xD046, size: 0x8, addend: 0x0, symName: __ZNSt3__122__compressed_pair_elemINS_14default_deleteINS_5tupleIJNS_10unique_ptrINS_15__thread_structENS1_IS4_EEEEMNS_19__async_assoc_stateIP8TreeNodeNS_12__async_funcIM8SolutionFS9_S9_EJPSB_S9_EEEEEFvvEPSG_EEEEELi1ELb1EEC2B7v160006ENS_16__value_init_tagE, symObjAddr: 0x3A5C, symBinAddr: 0x100004784, symSize: 0x14 }
  - { offsetInCU: 0xD0AA, offset: 0xD0AA, size: 0x8, addend: 0x0, symName: __ZNSt3__121__thread_specific_ptrINS_15__thread_structEE11set_pointerEPS1_, symObjAddr: 0x3A70, symBinAddr: 0x100004798, symSize: 0x74 }
  - { offsetInCU: 0xD0DF, offset: 0xD0DF, size: 0x8, addend: 0x0, symName: __ZNSt3__112__tuple_leafILm0ENS_10unique_ptrINS_15__thread_structENS_14default_deleteIS2_EEEELb0EE3getB7v160006Ev, symObjAddr: 0x3C04, symBinAddr: 0x10000492C, symSize: 0x14 }
  - { offsetInCU: 0xD105, offset: 0xD105, size: 0x8, addend: 0x0, symName: __ZNSt3__112__tuple_leafILm1EMNS_19__async_assoc_stateIP8TreeNodeNS_12__async_funcIM8SolutionFS3_S3_EJPS5_S3_EEEEEFvvELb0EE3getB7v160006Ev, symObjAddr: 0x3D90, symBinAddr: 0x100004AB8, symSize: 0x14 }
  - { offsetInCU: 0xD12B, offset: 0xD12B, size: 0x8, addend: 0x0, symName: __ZNSt3__112__tuple_leafILm2EPNS_19__async_assoc_stateIP8TreeNodeNS_12__async_funcIM8SolutionFS3_S3_EJPS5_S3_EEEEELb0EE3getB7v160006Ev, symObjAddr: 0x3DA4, symBinAddr: 0x100004ACC, symSize: 0x14 }
  - { offsetInCU: 0xD151, offset: 0xD151, size: 0x8, addend: 0x0, symName: __ZNKSt3__117__compressed_pairIPNS_5tupleIJNS_10unique_ptrINS_15__thread_structENS_14default_deleteIS3_EEEEMNS_19__async_assoc_stateIP8TreeNodeNS_12__async_funcIM8SolutionFS9_S9_EJPSB_S9_EEEEEFvvEPSG_EEENS4_ISK_EEE5firstB7v160006Ev, symObjAddr: 0x3DB8, symBinAddr: 0x100004AE0, symSize: 0x48 }
  - { offsetInCU: 0xD177, offset: 0xD177, size: 0x8, addend: 0x0, symName: __ZNKSt3__122__compressed_pair_elemIPNS_5tupleIJNS_10unique_ptrINS_15__thread_structENS_14default_deleteIS3_EEEEMNS_19__async_assoc_stateIP8TreeNodeNS_12__async_funcIM8SolutionFS9_S9_EJPSB_S9_EEEEEFvvEPSG_EEELi0ELb0EE5__getB7v160006Ev, symObjAddr: 0x3E00, symBinAddr: 0x100004B28, symSize: 0x14 }
  - { offsetInCU: 0xD19D, offset: 0xD19D, size: 0x8, addend: 0x0, symName: __ZNSt3__117__compressed_pairIPNS_5tupleIJNS_10unique_ptrINS_15__thread_structENS_14default_deleteIS3_EEEEMNS_19__async_assoc_stateIP8TreeNodeNS_12__async_funcIM8SolutionFS9_S9_EJPSB_S9_EEEEEFvvEPSG_EEENS4_ISK_EEE5firstB7v160006Ev, symObjAddr: 0x3E14, symBinAddr: 0x100004B3C, symSize: 0x48 }
  - { offsetInCU: 0xD1C3, offset: 0xD1C3, size: 0x8, addend: 0x0, symName: __ZNSt3__122__compressed_pair_elemIPNS_5tupleIJNS_10unique_ptrINS_15__thread_structENS_14default_deleteIS3_EEEEMNS_19__async_assoc_stateIP8TreeNodeNS_12__async_funcIM8SolutionFS9_S9_EJPSB_S9_EEEEEFvvEPSG_EEELi0ELb0EE5__getB7v160006Ev, symObjAddr: 0x3E5C, symBinAddr: 0x100004B84, symSize: 0x14 }
  - { offsetInCU: 0xD1E9, offset: 0xD1E9, size: 0x8, addend: 0x0, symName: __ZNSt3__110unique_ptrINS_5tupleIJNS0_INS_15__thread_structENS_14default_deleteIS2_EEEEMNS_19__async_assoc_stateIP8TreeNodeNS_12__async_funcIM8SolutionFS8_S8_EJPSA_S8_EEEEEFvvEPSF_EEENS3_ISJ_EEED2B7v160006Ev, symObjAddr: 0x3E70, symBinAddr: 0x100004B98, symSize: 0x4C }
  - { offsetInCU: 0xD213, offset: 0xD213, size: 0x8, addend: 0x0, symName: __ZNSt3__110unique_ptrINS_5tupleIJNS0_INS_15__thread_structENS_14default_deleteIS2_EEEEMNS_19__async_assoc_stateIP8TreeNodeNS_12__async_funcIM8SolutionFS8_S8_EJPSA_S8_EEEEEFvvEPSF_EEENS3_ISJ_EEE5resetB7v160006EPSJ_, symObjAddr: 0x3EBC, symBinAddr: 0x100004BE4, symSize: 0xB0 }
  - { offsetInCU: 0xD257, offset: 0xD257, size: 0x8, addend: 0x0, symName: __ZNSt3__117__compressed_pairIPNS_5tupleIJNS_10unique_ptrINS_15__thread_structENS_14default_deleteIS3_EEEEMNS_19__async_assoc_stateIP8TreeNodeNS_12__async_funcIM8SolutionFS9_S9_EJPSB_S9_EEEEEFvvEPSG_EEENS4_ISK_EEE6secondB7v160006Ev, symObjAddr: 0x3F6C, symBinAddr: 0x100004C94, symSize: 0x48 }
  - { offsetInCU: 0xD27D, offset: 0xD27D, size: 0x8, addend: 0x0, symName: __ZNKSt3__114default_deleteINS_5tupleIJNS_10unique_ptrINS_15__thread_structENS0_IS3_EEEEMNS_19__async_assoc_stateIP8TreeNodeNS_12__async_funcIM8SolutionFS8_S8_EJPSA_S8_EEEEEFvvEPSF_EEEEclB7v160006EPSJ_, symObjAddr: 0x3FB4, symBinAddr: 0x100004CDC, symSize: 0x70 }
  - { offsetInCU: 0xD2B1, offset: 0xD2B1, size: 0x8, addend: 0x0, symName: __ZNSt3__122__compressed_pair_elemINS_14default_deleteINS_5tupleIJNS_10unique_ptrINS_15__thread_structENS1_IS4_EEEEMNS_19__async_assoc_stateIP8TreeNodeNS_12__async_funcIM8SolutionFS9_S9_EJPSB_S9_EEEEEFvvEPSG_EEEEELi1ELb1EE5__getB7v160006Ev, symObjAddr: 0x4024, symBinAddr: 0x100004D4C, symSize: 0x14 }
  - { offsetInCU: 0xD2D7, offset: 0xD2D7, size: 0x8, addend: 0x0, symName: __ZNSt3__15tupleIJNS_10unique_ptrINS_15__thread_structENS_14default_deleteIS2_EEEEMNS_19__async_assoc_stateIP8TreeNodeNS_12__async_funcIM8SolutionFS8_S8_EJPSA_S8_EEEEEFvvEPSF_EED1Ev, symObjAddr: 0x4038, symBinAddr: 0x100004D60, symSize: 0x48 }
  - { offsetInCU: 0xD304, offset: 0xD304, size: 0x8, addend: 0x0, symName: __ZNSt3__15tupleIJNS_10unique_ptrINS_15__thread_structENS_14default_deleteIS2_EEEEMNS_19__async_assoc_stateIP8TreeNodeNS_12__async_funcIM8SolutionFS8_S8_EJPSA_S8_EEEEEFvvEPSF_EED2Ev, symObjAddr: 0x4080, symBinAddr: 0x100004DA8, symSize: 0x48 }
  - { offsetInCU: 0xD331, offset: 0xD331, size: 0x8, addend: 0x0, symName: __ZNSt3__112__tuple_implINS_15__tuple_indicesIJLm0ELm1ELm2EEEEJNS_10unique_ptrINS_15__thread_structENS_14default_deleteIS4_EEEEMNS_19__async_assoc_stateIP8TreeNodeNS_12__async_funcIM8SolutionFSA_SA_EJPSC_SA_EEEEEFvvEPSH_EED1Ev, symObjAddr: 0x40C8, symBinAddr: 0x100004DF0, symSize: 0x48 }
  - { offsetInCU: 0xD35E, offset: 0xD35E, size: 0x8, addend: 0x0, symName: __ZNSt3__112__tuple_implINS_15__tuple_indicesIJLm0ELm1ELm2EEEEJNS_10unique_ptrINS_15__thread_structENS_14default_deleteIS4_EEEEMNS_19__async_assoc_stateIP8TreeNodeNS_12__async_funcIM8SolutionFSA_SA_EJPSC_SA_EEEEEFvvEPSH_EED2Ev, symObjAddr: 0x4110, symBinAddr: 0x100004E38, symSize: 0x48 }
  - { offsetInCU: 0xD38B, offset: 0xD38B, size: 0x8, addend: 0x0, symName: __ZNSt3__112__tuple_leafILm0ENS_10unique_ptrINS_15__thread_structENS_14default_deleteIS2_EEEELb0EED2Ev, symObjAddr: 0x4158, symBinAddr: 0x100004E80, symSize: 0x48 }
  - { offsetInCU: 0xD3B8, offset: 0xD3B8, size: 0x8, addend: 0x0, symName: __ZNSt3__110unique_ptrINS_15__thread_structENS_14default_deleteIS1_EEED2B7v160006Ev, symObjAddr: 0x41A0, symBinAddr: 0x100004EC8, symSize: 0x4C }
  - { offsetInCU: 0xD3E2, offset: 0xD3E2, size: 0x8, addend: 0x0, symName: __ZNSt3__110unique_ptrINS_15__thread_structENS_14default_deleteIS1_EEE5resetB7v160006EPS1_, symObjAddr: 0x41EC, symBinAddr: 0x100004F14, symSize: 0xB0 }
  - { offsetInCU: 0xD426, offset: 0xD426, size: 0x8, addend: 0x0, symName: __ZNKSt3__114default_deleteINS_15__thread_structEEclB7v160006EPS1_, symObjAddr: 0x429C, symBinAddr: 0x100004FC4, symSize: 0x70 }
  - { offsetInCU: 0xD45A, offset: 0xD45A, size: 0x8, addend: 0x0, symName: __ZNSt3__16futureIP8TreeNodeEC2EPNS_13__assoc_stateIS2_EE, symObjAddr: 0x430C, symBinAddr: 0x100005034, symSize: 0x8C }
  - { offsetInCU: 0xD495, offset: 0xD495, size: 0x8, addend: 0x0, symName: __ZNSt3__117__assoc_sub_state15__attach_futureB7v160006Ev, symObjAddr: 0x4398, symBinAddr: 0x1000050C0, symSize: 0x114 }
  - { offsetInCU: 0xD4F2, offset: 0xD4F2, size: 0x8, addend: 0x0, symName: __ZNSt3__110lock_guardINS_5mutexEEC1B7v160006ERS1_, symObjAddr: 0x44AC, symBinAddr: 0x1000051D4, symSize: 0x6C }
  - { offsetInCU: 0xD52A, offset: 0xD52A, size: 0x8, addend: 0x0, symName: __ZNSt3__114__shared_count12__add_sharedB7v160006Ev, symObjAddr: 0x4518, symBinAddr: 0x100005240, symSize: 0x44 }
  - { offsetInCU: 0xD550, offset: 0xD550, size: 0x8, addend: 0x0, symName: __ZNSt3__110lock_guardINS_5mutexEED1B7v160006Ev, symObjAddr: 0x455C, symBinAddr: 0x100005284, symSize: 0x48 }
  - { offsetInCU: 0xD57A, offset: 0xD57A, size: 0x8, addend: 0x0, symName: __ZNSt3__110lock_guardINS_5mutexEEC2B7v160006ERS1_, symObjAddr: 0x45A4, symBinAddr: 0x1000052CC, symSize: 0x8C }
  - { offsetInCU: 0xD5B2, offset: 0xD5B2, size: 0x8, addend: 0x0, symName: __ZNSt3__110lock_guardINS_5mutexEED2B7v160006Ev, symObjAddr: 0x469C, symBinAddr: 0x1000053C4, symSize: 0x54 }
  - { offsetInCU: 0xD5DC, offset: 0xD5DC, size: 0x8, addend: 0x0, symName: __ZNSt3__110unique_ptrINS_19__async_assoc_stateIP8TreeNodeNS_12__async_funcIM8SolutionFS3_S3_EJPS5_S3_EEEEENS_22__release_shared_countEED2B7v160006Ev, symObjAddr: 0x46F0, symBinAddr: 0x100005418, symSize: 0x4C }
  - { offsetInCU: 0xD606, offset: 0xD606, size: 0x8, addend: 0x0, symName: __ZNSt3__110unique_ptrINS_19__async_assoc_stateIP8TreeNodeNS_12__async_funcIM8SolutionFS3_S3_EJPS5_S3_EEEEENS_22__release_shared_countEE5resetB7v160006EPSA_, symObjAddr: 0x473C, symBinAddr: 0x100005464, symSize: 0xB8 }
  - { offsetInCU: 0xD64A, offset: 0xD64A, size: 0x8, addend: 0x0, symName: __ZNSt3__117__compressed_pairIPNS_19__async_assoc_stateIP8TreeNodeNS_12__async_funcIM8SolutionFS3_S3_EJPS5_S3_EEEEENS_22__release_shared_countEE5firstB7v160006Ev, symObjAddr: 0x47F4, symBinAddr: 0x10000551C, symSize: 0x48 }
  - { offsetInCU: 0xD670, offset: 0xD670, size: 0x8, addend: 0x0, symName: __ZNSt3__117__compressed_pairIPNS_19__async_assoc_stateIP8TreeNodeNS_12__async_funcIM8SolutionFS3_S3_EJPS5_S3_EEEEENS_22__release_shared_countEE6secondB7v160006Ev, symObjAddr: 0x483C, symBinAddr: 0x100005564, symSize: 0x48 }
  - { offsetInCU: 0xD696, offset: 0xD696, size: 0x8, addend: 0x0, symName: __ZNSt3__122__release_shared_countclEPNS_14__shared_countE, symObjAddr: 0x4884, symBinAddr: 0x1000055AC, symSize: 0x4C }
  - { offsetInCU: 0xD6CB, offset: 0xD6CB, size: 0x8, addend: 0x0, symName: __ZNSt3__122__compressed_pair_elemIPNS_19__async_assoc_stateIP8TreeNodeNS_12__async_funcIM8SolutionFS3_S3_EJPS5_S3_EEEEELi0ELb0EE5__getB7v160006Ev, symObjAddr: 0x48D0, symBinAddr: 0x1000055F8, symSize: 0x14 }
  - { offsetInCU: 0xD6F1, offset: 0xD6F1, size: 0x8, addend: 0x0, symName: __ZNSt3__122__compressed_pair_elemINS_22__release_shared_countELi1ELb1EE5__getB7v160006Ev, symObjAddr: 0x48E4, symBinAddr: 0x10000560C, symSize: 0x14 }
  - { offsetInCU: 0xD717, offset: 0xD717, size: 0x8, addend: 0x0, symName: __ZNSt3__114__shared_count16__release_sharedB7v160006Ev, symObjAddr: 0x48F8, symBinAddr: 0x100005620, symSize: 0xA8 }
  - { offsetInCU: 0xD73D, offset: 0xD73D, size: 0x8, addend: 0x0, symName: __ZNSt3__112__async_funcIM8SolutionFP8TreeNodeS3_EJPS1_S3_EEC2B7v160006EOS5_OS6_OS3_, symObjAddr: 0x4A0C, symBinAddr: 0x100005734, symSize: 0x78 }
  - { offsetInCU: 0xD794, offset: 0xD794, size: 0x8, addend: 0x0, symName: __ZNSt3__15tupleIJM8SolutionFP8TreeNodeS3_EPS1_S3_EEC1B7v160006IJS5_S6_S3_ELi0EEEDpOT_, symObjAddr: 0x4A84, symBinAddr: 0x1000057AC, symSize: 0x78 }
  - { offsetInCU: 0xD806, offset: 0xD806, size: 0x8, addend: 0x0, symName: __ZNSt3__15tupleIJM8SolutionFP8TreeNodeS3_EPS1_S3_EEC2B7v160006IJS5_S6_S3_ELi0EEEDpOT_, symObjAddr: 0x4AFC, symBinAddr: 0x100005824, symSize: 0x78 }
  - { offsetInCU: 0xD878, offset: 0xD878, size: 0x8, addend: 0x0, symName: __ZNSt3__112__tuple_implINS_15__tuple_indicesIJLm0ELm1ELm2EEEEJM8SolutionFP8TreeNodeS5_EPS3_S5_EEC1B7v160006IJLm0ELm1ELm2EEJS7_S8_S5_EJEJEJS7_S8_S5_EEENS1_IJXspT_EEEENS_13__tuple_typesIJDpT0_EEENS1_IJXspT1_EEEENSC_IJDpT2_EEEDpOT3_, symObjAddr: 0x4B74, symBinAddr: 0x10000589C, symSize: 0x78 }
  - { offsetInCU: 0xD947, offset: 0xD947, size: 0x8, addend: 0x0, symName: __ZNSt3__112__tuple_implINS_15__tuple_indicesIJLm0ELm1ELm2EEEEJM8SolutionFP8TreeNodeS5_EPS3_S5_EEC2B7v160006IJLm0ELm1ELm2EEJS7_S8_S5_EJEJEJS7_S8_S5_EEENS1_IJXspT_EEEENS_13__tuple_typesIJDpT0_EEENS1_IJXspT1_EEEENSC_IJDpT2_EEEDpOT3_, symObjAddr: 0x4BEC, symBinAddr: 0x100005914, symSize: 0x90 }
  - { offsetInCU: 0xDA16, offset: 0xDA16, size: 0x8, addend: 0x0, symName: __ZNSt3__112__tuple_leafILm0EM8SolutionFP8TreeNodeS3_ELb0EEC2B7v160006IS5_vEEOT_, symObjAddr: 0x4C7C, symBinAddr: 0x1000059A4, symSize: 0x8C }
  - { offsetInCU: 0xDA59, offset: 0xDA59, size: 0x8, addend: 0x0, symName: __ZNSt3__112__tuple_leafILm1EP8SolutionLb0EEC2B7v160006IS2_vEEOT_, symObjAddr: 0x4D08, symBinAddr: 0x100005A30, symSize: 0x7C }
  - { offsetInCU: 0xDA9C, offset: 0xDA9C, size: 0x8, addend: 0x0, symName: __ZNSt3__112__tuple_leafILm2EP8TreeNodeLb0EEC2B7v160006IS2_vEEOT_, symObjAddr: 0x4D84, symBinAddr: 0x100005AAC, symSize: 0x7C }
  - { offsetInCU: 0xDAE4, offset: 0xDAE4, size: 0x8, addend: 0x0, symName: __ZNSt3__122__deferred_assoc_stateIP8TreeNodeNS_12__async_funcIM8SolutionFS2_S2_EJPS4_S2_EEEEC1EOS8_, symObjAddr: 0x4E00, symBinAddr: 0x100005B28, symSize: 0x6C }
  - { offsetInCU: 0xDB8D, offset: 0xDB8D, size: 0x8, addend: 0x0, symName: __ZNSt3__110unique_ptrINS_22__deferred_assoc_stateIP8TreeNodeNS_12__async_funcIM8SolutionFS3_S3_EJPS5_S3_EEEEENS_22__release_shared_countEEC1B7v160006ILb1EvEEPSA_, symObjAddr: 0x4E6C, symBinAddr: 0x100005B94, symSize: 0x58 }
  - { offsetInCU: 0xDBD0, offset: 0xDBD0, size: 0x8, addend: 0x0, symName: __ZNKSt3__110unique_ptrINS_22__deferred_assoc_stateIP8TreeNodeNS_12__async_funcIM8SolutionFS3_S3_EJPS5_S3_EEEEENS_22__release_shared_countEE3getB7v160006Ev, symObjAddr: 0x4EC4, symBinAddr: 0x100005BEC, symSize: 0x58 }
  - { offsetInCU: 0xDBF6, offset: 0xDBF6, size: 0x8, addend: 0x0, symName: __ZNSt3__110unique_ptrINS_22__deferred_assoc_stateIP8TreeNodeNS_12__async_funcIM8SolutionFS3_S3_EJPS5_S3_EEEEENS_22__release_shared_countEED1B7v160006Ev, symObjAddr: 0x4F1C, symBinAddr: 0x100005C44, symSize: 0x48 }
  - { offsetInCU: 0xDC20, offset: 0xDC20, size: 0x8, addend: 0x0, symName: __ZNSt3__122__deferred_assoc_stateIP8TreeNodeNS_12__async_funcIM8SolutionFS2_S2_EJPS4_S2_EEEEC2EOS8_, symObjAddr: 0x4F64, symBinAddr: 0x100005C8C, symSize: 0xEC }
  - { offsetInCU: 0xDC5B, offset: 0xDC5B, size: 0x8, addend: 0x0, symName: __ZNSt3__117__assoc_sub_state14__set_deferredB7v160006Ev, symObjAddr: 0x5050, symBinAddr: 0x100005D78, symSize: 0x60 }
  - { offsetInCU: 0xDC81, offset: 0xDC81, size: 0x8, addend: 0x0, symName: __ZNSt3__122__deferred_assoc_stateIP8TreeNodeNS_12__async_funcIM8SolutionFS2_S2_EJPS4_S2_EEEED1Ev, symObjAddr: 0x50B0, symBinAddr: 0x100005DD8, symSize: 0x48 }
  - { offsetInCU: 0xDCAE, offset: 0xDCAE, size: 0x8, addend: 0x0, symName: __ZNSt3__122__deferred_assoc_stateIP8TreeNodeNS_12__async_funcIM8SolutionFS2_S2_EJPS4_S2_EEEED0Ev, symObjAddr: 0x50F8, symBinAddr: 0x100005E20, symSize: 0x4C }
  - { offsetInCU: 0xDCDB, offset: 0xDCDB, size: 0x8, addend: 0x0, symName: __ZNSt3__122__deferred_assoc_stateIP8TreeNodeNS_12__async_funcIM8SolutionFS2_S2_EJPS4_S2_EEEE9__executeEv, symObjAddr: 0x5144, symBinAddr: 0x100005E6C, symSize: 0x118 }
  - { offsetInCU: 0xDD03, offset: 0xDD03, size: 0x8, addend: 0x0, symName: __ZNSt3__122__deferred_assoc_stateIP8TreeNodeNS_12__async_funcIM8SolutionFS2_S2_EJPS4_S2_EEEED2Ev, symObjAddr: 0x525C, symBinAddr: 0x100005F84, symSize: 0x48 }
  - { offsetInCU: 0xDD30, offset: 0xDD30, size: 0x8, addend: 0x0, symName: __ZNSt3__110unique_ptrINS_22__deferred_assoc_stateIP8TreeNodeNS_12__async_funcIM8SolutionFS3_S3_EJPS5_S3_EEEEENS_22__release_shared_countEEC2B7v160006ILb1EvEEPSA_, symObjAddr: 0x52A4, symBinAddr: 0x100005FCC, symSize: 0x70 }
  - { offsetInCU: 0xDD73, offset: 0xDD73, size: 0x8, addend: 0x0, symName: __ZNSt3__117__compressed_pairIPNS_22__deferred_assoc_stateIP8TreeNodeNS_12__async_funcIM8SolutionFS3_S3_EJPS5_S3_EEEEENS_22__release_shared_countEEC1B7v160006IRSB_NS_16__value_init_tagEEEOT_OT0_, symObjAddr: 0x5314, symBinAddr: 0x10000603C, symSize: 0x7C }
  - { offsetInCU: 0xDDCB, offset: 0xDDCB, size: 0x8, addend: 0x0, symName: __ZNSt3__117__compressed_pairIPNS_22__deferred_assoc_stateIP8TreeNodeNS_12__async_funcIM8SolutionFS3_S3_EJPS5_S3_EEEEENS_22__release_shared_countEEC2B7v160006IRSB_NS_16__value_init_tagEEEOT_OT0_, symObjAddr: 0x5390, symBinAddr: 0x1000060B8, symSize: 0x6C }
  - { offsetInCU: 0xDE23, offset: 0xDE23, size: 0x8, addend: 0x0, symName: __ZNSt3__122__compressed_pair_elemIPNS_22__deferred_assoc_stateIP8TreeNodeNS_12__async_funcIM8SolutionFS3_S3_EJPS5_S3_EEEEELi0ELb0EEC2B7v160006IRSB_vEEOT_, symObjAddr: 0x53FC, symBinAddr: 0x100006124, symSize: 0x7C }
  - { offsetInCU: 0xDE65, offset: 0xDE65, size: 0x8, addend: 0x0, symName: __ZNKSt3__117__compressed_pairIPNS_22__deferred_assoc_stateIP8TreeNodeNS_12__async_funcIM8SolutionFS3_S3_EJPS5_S3_EEEEENS_22__release_shared_countEE5firstB7v160006Ev, symObjAddr: 0x5478, symBinAddr: 0x1000061A0, symSize: 0x48 }
  - { offsetInCU: 0xDE8B, offset: 0xDE8B, size: 0x8, addend: 0x0, symName: __ZNKSt3__122__compressed_pair_elemIPNS_22__deferred_assoc_stateIP8TreeNodeNS_12__async_funcIM8SolutionFS3_S3_EJPS5_S3_EEEEELi0ELb0EE5__getB7v160006Ev, symObjAddr: 0x54C0, symBinAddr: 0x1000061E8, symSize: 0x14 }
  - { offsetInCU: 0xDEB1, offset: 0xDEB1, size: 0x8, addend: 0x0, symName: __ZNSt3__110unique_ptrINS_22__deferred_assoc_stateIP8TreeNodeNS_12__async_funcIM8SolutionFS3_S3_EJPS5_S3_EEEEENS_22__release_shared_countEED2B7v160006Ev, symObjAddr: 0x54D4, symBinAddr: 0x1000061FC, symSize: 0x4C }
  - { offsetInCU: 0xDEDB, offset: 0xDEDB, size: 0x8, addend: 0x0, symName: __ZNSt3__110unique_ptrINS_22__deferred_assoc_stateIP8TreeNodeNS_12__async_funcIM8SolutionFS3_S3_EJPS5_S3_EEEEENS_22__release_shared_countEE5resetB7v160006EPSA_, symObjAddr: 0x5520, symBinAddr: 0x100006248, symSize: 0xB0 }
  - { offsetInCU: 0xDF1F, offset: 0xDF1F, size: 0x8, addend: 0x0, symName: __ZNSt3__117__compressed_pairIPNS_22__deferred_assoc_stateIP8TreeNodeNS_12__async_funcIM8SolutionFS3_S3_EJPS5_S3_EEEEENS_22__release_shared_countEE5firstB7v160006Ev, symObjAddr: 0x55D0, symBinAddr: 0x1000062F8, symSize: 0x48 }
  - { offsetInCU: 0xDF45, offset: 0xDF45, size: 0x8, addend: 0x0, symName: __ZNSt3__117__compressed_pairIPNS_22__deferred_assoc_stateIP8TreeNodeNS_12__async_funcIM8SolutionFS3_S3_EJPS5_S3_EEEEENS_22__release_shared_countEE6secondB7v160006Ev, symObjAddr: 0x5618, symBinAddr: 0x100006340, symSize: 0x48 }
  - { offsetInCU: 0xDF6B, offset: 0xDF6B, size: 0x8, addend: 0x0, symName: __ZNSt3__122__compressed_pair_elemIPNS_22__deferred_assoc_stateIP8TreeNodeNS_12__async_funcIM8SolutionFS3_S3_EJPS5_S3_EEEEELi0ELb0EE5__getB7v160006Ev, symObjAddr: 0x5660, symBinAddr: 0x100006388, symSize: 0x14 }
  - { offsetInCU: 0xDF91, offset: 0xDF91, size: 0x8, addend: 0x0, symName: __ZNSt3__16futureIP8TreeNodeEC2B7v160006Ev, symObjAddr: 0x5674, symBinAddr: 0x10000639C, symSize: 0x50 }
  - { offsetInCU: 0xE01F, offset: 0xE01F, size: 0x8, addend: 0x0, symName: __ZNSt3__110unique_ptrINS_14__shared_countENS_22__release_shared_countEEC1B7v160006ILb1EvEEPS1_, symObjAddr: 0x56C4, symBinAddr: 0x1000063EC, symSize: 0x58 }
  - { offsetInCU: 0xE062, offset: 0xE062, size: 0x8, addend: 0x0, symName: __ZNSt3__113__assoc_stateIP8TreeNodeE4moveEv, symObjAddr: 0x571C, symBinAddr: 0x100006444, symSize: 0x154 }
  - { offsetInCU: 0xE099, offset: 0xE099, size: 0x8, addend: 0x0, symName: __ZNSt3__110unique_ptrINS_14__shared_countENS_22__release_shared_countEED1B7v160006Ev, symObjAddr: 0x5870, symBinAddr: 0x100006598, symSize: 0x48 }
  - { offsetInCU: 0xE0C3, offset: 0xE0C3, size: 0x8, addend: 0x0, symName: __ZNSt3__110unique_ptrINS_14__shared_countENS_22__release_shared_countEEC2B7v160006ILb1EvEEPS1_, symObjAddr: 0x58B8, symBinAddr: 0x1000065E0, symSize: 0x70 }
  - { offsetInCU: 0xE106, offset: 0xE106, size: 0x8, addend: 0x0, symName: __ZNSt3__117__compressed_pairIPNS_14__shared_countENS_22__release_shared_countEEC1B7v160006IRS2_NS_16__value_init_tagEEEOT_OT0_, symObjAddr: 0x5928, symBinAddr: 0x100006650, symSize: 0x7C }
  - { offsetInCU: 0xE15E, offset: 0xE15E, size: 0x8, addend: 0x0, symName: __ZNSt3__117__compressed_pairIPNS_14__shared_countENS_22__release_shared_countEEC2B7v160006IRS2_NS_16__value_init_tagEEEOT_OT0_, symObjAddr: 0x59A4, symBinAddr: 0x1000066CC, symSize: 0x6C }
  - { offsetInCU: 0xE1B6, offset: 0xE1B6, size: 0x8, addend: 0x0, symName: __ZNSt3__122__compressed_pair_elemIPNS_14__shared_countELi0ELb0EEC2B7v160006IRS2_vEEOT_, symObjAddr: 0x5A10, symBinAddr: 0x100006738, symSize: 0x7C }
  - { offsetInCU: 0xE1F8, offset: 0xE1F8, size: 0x8, addend: 0x0, symName: __ZNSt3__110unique_ptrINS_14__shared_countENS_22__release_shared_countEED2B7v160006Ev, symObjAddr: 0x5A8C, symBinAddr: 0x1000067B4, symSize: 0x4C }
  - { offsetInCU: 0xE222, offset: 0xE222, size: 0x8, addend: 0x0, symName: __ZNSt3__110unique_ptrINS_14__shared_countENS_22__release_shared_countEE5resetB7v160006EPS1_, symObjAddr: 0x5AD8, symBinAddr: 0x100006800, symSize: 0xB0 }
  - { offsetInCU: 0xE266, offset: 0xE266, size: 0x8, addend: 0x0, symName: __ZNSt3__117__compressed_pairIPNS_14__shared_countENS_22__release_shared_countEE5firstB7v160006Ev, symObjAddr: 0x5B88, symBinAddr: 0x1000068B0, symSize: 0x48 }
  - { offsetInCU: 0xE28C, offset: 0xE28C, size: 0x8, addend: 0x0, symName: __ZNSt3__117__compressed_pairIPNS_14__shared_countENS_22__release_shared_countEE6secondB7v160006Ev, symObjAddr: 0x5BD0, symBinAddr: 0x1000068F8, symSize: 0x48 }
  - { offsetInCU: 0xE2B2, offset: 0xE2B2, size: 0x8, addend: 0x0, symName: __ZNSt3__122__compressed_pair_elemIPNS_14__shared_countELi0ELb0EE5__getB7v160006Ev, symObjAddr: 0x5C18, symBinAddr: 0x100006940, symSize: 0x14 }
  - { offsetInCU: 0xE2D8, offset: 0xE2D8, size: 0x8, addend: 0x0, symName: __ZNSt3__16futureIP8TreeNodeED2Ev, symObjAddr: 0x5C2C, symBinAddr: 0x100006954, symSize: 0x88 }
  - { offsetInCU: 0xE304, offset: 0xE304, size: 0x8, addend: 0x0, symName: __ZNSt3__111char_traitsIcE6lengthEPKc, symObjAddr: 0x5F48, symBinAddr: 0x100006C70, symSize: 0x50 }
  - { offsetInCU: 0xE345, offset: 0xE345, size: 0x8, addend: 0x0, symName: __ZNKSt3__113basic_ostreamIcNS_11char_traitsIcEEE6sentrycvbB7v160006Ev, symObjAddr: 0x5F98, symBinAddr: 0x100006CC0, symSize: 0x58 }
  - { offsetInCU: 0xE36B, offset: 0xE36B, size: 0x8, addend: 0x0, symName: __ZNSt3__119ostreambuf_iteratorIcNS_11char_traitsIcEEEC1B7v160006ERNS_13basic_ostreamIcS2_EE, symObjAddr: 0x62F0, symBinAddr: 0x100007018, symSize: 0x58 }
  - { offsetInCU: 0xE3A3, offset: 0xE3A3, size: 0x8, addend: 0x0, symName: __ZNKSt3__18ios_base5flagsB7v160006Ev, symObjAddr: 0x6348, symBinAddr: 0x100007070, symSize: 0x58 }
  - { offsetInCU: 0xE3CB, offset: 0xE3CB, size: 0x8, addend: 0x0, symName: __ZNKSt3__19basic_iosIcNS_11char_traitsIcEEE4fillB7v160006Ev, symObjAddr: 0x63A0, symBinAddr: 0x1000070C8, symSize: 0xD8 }
  - { offsetInCU: 0xE3F3, offset: 0xE3F3, size: 0x8, addend: 0x0, symName: __ZNKSt3__119ostreambuf_iteratorIcNS_11char_traitsIcEEE6failedB7v160006Ev, symObjAddr: 0x6478, symBinAddr: 0x1000071A0, symSize: 0x60 }
  - { offsetInCU: 0xE419, offset: 0xE419, size: 0x8, addend: 0x0, symName: __ZNSt3__19basic_iosIcNS_11char_traitsIcEEE8setstateB7v160006Ej, symObjAddr: 0x64D8, symBinAddr: 0x100007200, symSize: 0x64 }
  - { offsetInCU: 0xE44E, offset: 0xE44E, size: 0x8, addend: 0x0, symName: __ZNKSt3__18ios_base5widthB7v160006Ev, symObjAddr: 0x653C, symBinAddr: 0x100007264, symSize: 0x58 }
  - { offsetInCU: 0xE476, offset: 0xE476, size: 0x8, addend: 0x0, symName: __ZNSt3__115basic_streambufIcNS_11char_traitsIcEEE5sputnB7v160006EPKcl, symObjAddr: 0x6594, symBinAddr: 0x1000072BC, symSize: 0xA0 }
  - { offsetInCU: 0xE4B8, offset: 0xE4B8, size: 0x8, addend: 0x0, symName: __ZNSt3__112basic_stringIcNS_11char_traitsIcEENS_9allocatorIcEEEC1B7v160006Emc, symObjAddr: 0x6634, symBinAddr: 0x10000735C, symSize: 0x7C }
  - { offsetInCU: 0xE500, offset: 0xE500, size: 0x8, addend: 0x0, symName: __ZNKSt3__112basic_stringIcNS_11char_traitsIcEENS_9allocatorIcEEE4dataB7v160006Ev, symObjAddr: 0x66B0, symBinAddr: 0x1000073D8, symSize: 0x4C }
  - { offsetInCU: 0xE526, offset: 0xE526, size: 0x8, addend: 0x0, symName: __ZNSt3__18ios_base5widthB7v160006El, symObjAddr: 0x66FC, symBinAddr: 0x100007424, symSize: 0x88 }
  - { offsetInCU: 0xE56C, offset: 0xE56C, size: 0x8, addend: 0x0, symName: __ZNSt3__112basic_stringIcNS_11char_traitsIcEENS_9allocatorIcEEEC2B7v160006Emc, symObjAddr: 0x6784, symBinAddr: 0x1000074AC, symSize: 0x98 }
  - { offsetInCU: 0xE5B9, offset: 0xE5B9, size: 0x8, addend: 0x0, symName: __ZNSt3__117__compressed_pairINS_12basic_stringIcNS_11char_traitsIcEENS_9allocatorIcEEE5__repES5_EC1B7v160006INS_18__default_init_tagESA_EEOT_OT0_, symObjAddr: 0x681C, symBinAddr: 0x100007544, symSize: 0x7C }
  - { offsetInCU: 0xE611, offset: 0xE611, size: 0x8, addend: 0x0, symName: __ZNSt3__117__compressed_pairINS_12basic_stringIcNS_11char_traitsIcEENS_9allocatorIcEEE5__repES5_EC2B7v160006INS_18__default_init_tagESA_EEOT_OT0_, symObjAddr: 0x68A8, symBinAddr: 0x1000075D0, symSize: 0x68 }
  - { offsetInCU: 0xE669, offset: 0xE669, size: 0x8, addend: 0x0, symName: __ZNSt3__122__compressed_pair_elemINS_12basic_stringIcNS_11char_traitsIcEENS_9allocatorIcEEE5__repELi0ELb0EEC2B7v160006ENS_18__default_init_tagE, symObjAddr: 0x6910, symBinAddr: 0x100007638, symSize: 0x14 }
  - { offsetInCU: 0xE69E, offset: 0xE69E, size: 0x8, addend: 0x0, symName: __ZNSt3__122__compressed_pair_elemINS_9allocatorIcEELi1ELb1EEC2B7v160006ENS_18__default_init_tagE, symObjAddr: 0x6924, symBinAddr: 0x10000764C, symSize: 0x48 }
  - { offsetInCU: 0xE6D3, offset: 0xE6D3, size: 0x8, addend: 0x0, symName: __ZNSt3__19allocatorIcEC2B7v160006Ev, symObjAddr: 0x696C, symBinAddr: 0x100007694, symSize: 0x48 }
  - { offsetInCU: 0xE6FD, offset: 0xE6FD, size: 0x8, addend: 0x0, symName: __ZNSt3__116__non_trivial_ifILb1ENS_9allocatorIcEEEC2B7v160006Ev, symObjAddr: 0x69B4, symBinAddr: 0x1000076DC, symSize: 0x14 }
  - { offsetInCU: 0xE727, offset: 0xE727, size: 0x8, addend: 0x0, symName: __ZNKSt3__112basic_stringIcNS_11char_traitsIcEENS_9allocatorIcEEE13__get_pointerB7v160006Ev, symObjAddr: 0x69DC, symBinAddr: 0x100007704, symSize: 0x78 }
  - { offsetInCU: 0xE74D, offset: 0xE74D, size: 0x8, addend: 0x0, symName: __ZNKSt3__112basic_stringIcNS_11char_traitsIcEENS_9allocatorIcEEE9__is_longB7v160006Ev, symObjAddr: 0x6A54, symBinAddr: 0x10000777C, symSize: 0x6C }
  - { offsetInCU: 0xE773, offset: 0xE773, size: 0x8, addend: 0x0, symName: __ZNKSt3__112basic_stringIcNS_11char_traitsIcEENS_9allocatorIcEEE18__get_long_pointerB7v160006Ev, symObjAddr: 0x6AC0, symBinAddr: 0x1000077E8, symSize: 0x58 }
  - { offsetInCU: 0xE799, offset: 0xE799, size: 0x8, addend: 0x0, symName: __ZNKSt3__112basic_stringIcNS_11char_traitsIcEENS_9allocatorIcEEE19__get_short_pointerB7v160006Ev, symObjAddr: 0x6B18, symBinAddr: 0x100007840, symSize: 0x4C }
  - { offsetInCU: 0xE7BF, offset: 0xE7BF, size: 0x8, addend: 0x0, symName: __ZNKSt3__117__compressed_pairINS_12basic_stringIcNS_11char_traitsIcEENS_9allocatorIcEEE5__repES5_E5firstB7v160006Ev, symObjAddr: 0x6B64, symBinAddr: 0x10000788C, symSize: 0x48 }
  - { offsetInCU: 0xE7E5, offset: 0xE7E5, size: 0x8, addend: 0x0, symName: __ZNKSt3__122__compressed_pair_elemINS_12basic_stringIcNS_11char_traitsIcEENS_9allocatorIcEEE5__repELi0ELb0EE5__getB7v160006Ev, symObjAddr: 0x6BAC, symBinAddr: 0x1000078D4, symSize: 0x14 }
  - { offsetInCU: 0xE80B, offset: 0xE80B, size: 0x8, addend: 0x0, symName: __ZNSt3__114pointer_traitsIPKcE10pointer_toB7v160006ERS1_, symObjAddr: 0x6BC0, symBinAddr: 0x1000078E8, symSize: 0x14 }
  - { offsetInCU: 0xE82E, offset: 0xE82E, size: 0x8, addend: 0x0, symName: __ZNSt3__119ostreambuf_iteratorIcNS_11char_traitsIcEEEC2B7v160006ERNS_13basic_ostreamIcS2_EE, symObjAddr: 0x6BD4, symBinAddr: 0x1000078FC, symSize: 0x90 }
  - { offsetInCU: 0xE866, offset: 0xE866, size: 0x8, addend: 0x0, symName: __ZNKSt3__19basic_iosIcNS_11char_traitsIcEEE5rdbufB7v160006Ev, symObjAddr: 0x6C64, symBinAddr: 0x10000798C, symSize: 0x48 }
  - { offsetInCU: 0xE88E, offset: 0xE88E, size: 0x8, addend: 0x0, symName: __ZNKSt3__18ios_base5rdbufB7v160006Ev, symObjAddr: 0x6CAC, symBinAddr: 0x1000079D4, symSize: 0x58 }
  - { offsetInCU: 0xE8B4, offset: 0xE8B4, size: 0x8, addend: 0x0, symName: __ZNSt3__111char_traitsIcE11eq_int_typeEii, symObjAddr: 0x6D04, symBinAddr: 0x100007A2C, symSize: 0x28 }
  - { offsetInCU: 0xE8E5, offset: 0xE8E5, size: 0x8, addend: 0x0, symName: __ZNSt3__111char_traitsIcE3eofEv, symObjAddr: 0x6D2C, symBinAddr: 0x100007A54, symSize: 0x8 }
  - { offsetInCU: 0xE8F9, offset: 0xE8F9, size: 0x8, addend: 0x0, symName: __ZNKSt3__19basic_iosIcNS_11char_traitsIcEEE5widenB7v160006Ec, symObjAddr: 0x6D34, symBinAddr: 0x100007A5C, symSize: 0xD4 }
  - { offsetInCU: 0xE967, offset: 0xE967, size: 0x8, addend: 0x0, symName: __ZNKSt3__15ctypeIcE5widenB7v160006Ec, symObjAddr: 0x6E6C, symBinAddr: 0x100007B94, symSize: 0x8C }
  - { offsetInCU: 0xE99C, offset: 0xE99C, size: 0x8, addend: 0x0, symName: __ZNSt3__18ios_base8setstateB7v160006Ej, symObjAddr: 0x6EF8, symBinAddr: 0x100007C20, symSize: 0x7C }
...
